; Function Attrs: nounwind uwtable
define ptr @MakeSigner(ptr noundef readnone captures(none) %0) local_unnamed_addr #2 {
  %2 = tail call ptr @wolfSSL_Malloc(i64 noundef 112) #22
  %.not = icmp eq ptr %2, null
  br i1 %.not, label %4, label %3

3:                                                ; preds = %1
  tail call void @llvm.memset.p0.i64(ptr noundef nonnull align 8 dereferenceable(112) %2, i8 0, i64 112, i1 false)
  br label %4

4:                                                ; preds = %3, %1
  ret ptr %2
}